target datalayout = "e-m:e-p270:32:32-p271:32:32-p272:64:64-i64:64-i128:128-f80:128-n8:16:32:64-S128"
target triple = "x86_64-unknown-linux-gnu"

%"struct.std::_Rb_tree_key_compare" = type { %"struct.std::less" }
%"struct.std::less" = type { i8 }
%"struct.std::_Rb_tree_header" = type { %"struct.std::_Rb_tree_node_base", i64 }
%"struct.std::_Rb_tree_node_base" = type { i32, ptr, ptr, ptr }
%"class.OpenColorIO_v2_4dev::FormatRegistry" = type { %"class.std::map", %"class.std::map.7", %"class.std::vector", %"class.std::vector.15", %"class.std::vector.15", %"class.std::vector.15", %"class.std::vector.15", %"class.std::vector.15", %"class.std::vector.15" }
%"class.std::map" = type { %"class.std::_Rb_tree" }
%"class.std::_Rb_tree" = type { %"struct.std::_Rb_tree<std::__cxx11::basic_string<char>, std::pair<const std::__cxx11::basic_string<char>, OpenColorIO_v2_4dev::FileFormat *>, std::_Select1st<std::pair<const std::__cxx11::basic_string<char>, OpenColorIO_v2_4dev::FileFormat *>>, std::less<std::__cxx11::basic_string<char>>>::_Rb_tree_impl" }
%"struct.std::_Rb_tree<std::__cxx11::basic_string<char>, std::pair<const std::__cxx11::basic_string<char>, OpenColorIO_v2_4dev::FileFormat *>, std::_Select1st<std::pair<const std::__cxx11::basic_string<char>, OpenColorIO_v2_4dev::FileFormat *>>, std::less<std::__cxx11::basic_string<char>>>::_Rb_tree_impl" = type { %"struct.std::_Rb_tree_key_compare", %"struct.std::_Rb_tree_header" }
%"class.std::map.7" = type { %"class.std::_Rb_tree.8" }
%"class.std::_Rb_tree.8" = type { %"struct.std::_Rb_tree<std::__cxx11::basic_string<char>, std::pair<const std::__cxx11::basic_string<char>, std::vector<OpenColorIO_v2_4dev::FileFormat *>>, std::_Select1st<std::pair<const std::__cxx11::basic_string<char>, std::vector<OpenColorIO_v2_4dev::FileFormat *>>>, std::less<std::__cxx11::basic_string<char>>>::_Rb_tree_impl" }
%"struct.std::_Rb_tree<std::__cxx11::basic_string<char>, std::pair<const std::__cxx11::basic_string<char>, std::vector<OpenColorIO_v2_4dev::FileFormat *>>, std::_Select1st<std::pair<const std::__cxx11::basic_string<char>, std::vector<OpenColorIO_v2_4dev::FileFormat *>>>, std::less<std::__cxx11::basic_string<char>>>::_Rb_tree_impl" = type { %"struct.std::_Rb_tree_key_compare", %"struct.std::_Rb_tree_header" }
%"class.std::vector" = type { %"struct.std::_Vector_base" }
%"struct.std::_Vector_base" = type { %"struct.std::_Vector_base<OpenColorIO_v2_4dev::FileFormat *, std::allocator<OpenColorIO_v2_4dev::FileFormat *>>::_Vector_impl" }
%"struct.std::_Vector_base<OpenColorIO_v2_4dev::FileFormat *, std::allocator<OpenColorIO_v2_4dev::FileFormat *>>::_Vector_impl" = type { %"struct.std::_Vector_base<OpenColorIO_v2_4dev::FileFormat *, std::allocator<OpenColorIO_v2_4dev::FileFormat *>>::_Vector_impl_data" }
%"struct.std::_Vector_base<OpenColorIO_v2_4dev::FileFormat *, std::allocator<OpenColorIO_v2_4dev::FileFormat *>>::_Vector_impl_data" = type { ptr, ptr, ptr }
%"class.std::vector.15" = type { %"struct.std::_Vector_base.16" }
%"struct.std::_Vector_base.16" = type { %"struct.std::_Vector_base<std::__cxx11::basic_string<char>, std::allocator<std::__cxx11::basic_string<char>>>::_Vector_impl" }
%"struct.std::_Vector_base<std::__cxx11::basic_string<char>, std::allocator<std::__cxx11::basic_string<char>>>::_Vector_impl" = type { %"struct.std::_Vector_base<std::__cxx11::basic_string<char>, std::allocator<std::__cxx11::basic_string<char>>>::_Vector_impl_data" }
%"struct.std::_Vector_base<std::__cxx11::basic_string<char>, std::allocator<std::__cxx11::basic_string<char>>>::_Vector_impl_data" = type { ptr, ptr, ptr }

; Function Attrs: mustprogress nounwind uwtable
define linkonce_odr hidden noundef i64 @_ZNKSt6vectorINSt7__cxx1112basic_stringIcSt11char_traitsIcESaIcEEESaIS5_EE4sizeEv(ptr noundef nonnull align 8 dereferenceable(24) %this) #7 comdat align 2 {
entry:
  %this.addr = alloca ptr, align 8
  store ptr %this, ptr %this.addr, align 8
  %this1 = load ptr, ptr %this.addr, align 8
  %_M_impl = getelementptr inbounds %"struct.std::_Vector_base.16", ptr %this1, i32 0, i32 0
  %_M_finish = getelementptr inbounds %"struct.std::_Vector_base<std::__cxx11::basic_string<char>, std::allocator<std::__cxx11::basic_string<char>>>::_Vector_impl_data", ptr %_M_impl, i32 0, i32 1
  %0 = load ptr, ptr %_M_finish, align 8
  %_M_impl2 = getelementptr inbounds %"struct.std::_Vector_base.16", ptr %this1, i32 0, i32 0
  %_M_start = getelementptr inbounds %"struct.std::_Vector_base<std::__cxx11::basic_string<char>, std::allocator<std::__cxx11::basic_string<char>>>::_Vector_impl_data", ptr %_M_impl2, i32 0, i32 0
  %1 = load ptr, ptr %_M_start, align 8
  %sub.ptr.lhs.cast = ptrtoint ptr %0 to i64
  %sub.ptr.rhs.cast = ptrtoint ptr %1 to i64
  %sub.ptr.sub = sub i64 %sub.ptr.lhs.cast, %sub.ptr.rhs.cast
  %sub.ptr.div = sdiv exact i64 %sub.ptr.sub, 32
  ret i64 %sub.ptr.div
}

; Function Attrs: mustprogress nounwind uwtable
define hidden noundef i32 @_ZNK19OpenColorIO_v2_4dev14FormatRegistry13getNumFormatsEi(ptr noundef nonnull align 8 dereferenceable(264) %this, i32 noundef %capability) #7 align 2 {
entry:
  %retval = alloca i32, align 4
  %this.addr = alloca ptr, align 8
  %capability.addr = alloca i32, align 4
  store ptr %this, ptr %this.addr, align 8
  store i32 %capability, ptr %capability.addr, align 4
  %this1 = load ptr, ptr %this.addr, align 8
  %0 = load i32, ptr %capability.addr, align 4
  %cmp = icmp eq i32 %0, 1
  br i1 %cmp, label %if.then, label %if.else

if.then:                                          ; preds = %entry
  %m_readFormatNames = getelementptr inbounds %"class.OpenColorIO_v2_4dev::FormatRegistry", ptr %this1, i32 0, i32 3
  %call = call noundef i64 @_ZNKSt6vectorINSt7__cxx1112basic_stringIcSt11char_traitsIcESaIcEEESaIS5_EE4sizeEv(ptr noundef nonnull align 8 dereferenceable(24) %m_readFormatNames) #3
  %conv = trunc i64 %call to i32
  store i32 %conv, ptr %retval, align 4
  br label %return

if.else:                                          ; preds = %entry
  %1 = load i32, ptr %capability.addr, align 4
  %cmp2 = icmp eq i32 %1, 2
  br i1 %cmp2, label %if.then3, label %if.else6

if.then3:                                         ; preds = %if.else
  %m_bakeFormatNames = getelementptr inbounds %"class.OpenColorIO_v2_4dev::FormatRegistry", ptr %this1, i32 0, i32 5
  %call4 = call noundef i64 @_ZNKSt6vectorINSt7__cxx1112basic_stringIcSt11char_traitsIcESaIcEEESaIS5_EE4sizeEv(ptr noundef nonnull align 8 dereferenceable(24) %m_bakeFormatNames) #3
  %conv5 = trunc i64 %call4 to i32
  store i32 %conv5, ptr %retval, align 4
  br label %return

if.else6:                                         ; preds = %if.else
  %2 = load i32, ptr %capability.addr, align 4
  %cmp7 = icmp eq i32 %2, 4
  br i1 %cmp7, label %if.then8, label %if.end

if.then8:                                         ; preds = %if.else6
  %m_writeFormatNames = getelementptr inbounds %"class.OpenColorIO_v2_4dev::FormatRegistry", ptr %this1, i32 0, i32 7
  %call9 = call noundef i64 @_ZNKSt6vectorINSt7__cxx1112basic_stringIcSt11char_traitsIcESaIcEEESaIS5_EE4sizeEv(ptr noundef nonnull align 8 dereferenceable(24) %m_writeFormatNames) #3
  %conv10 = trunc i64 %call9 to i32
  store i32 %conv10, ptr %retval, align 4
  br label %return

if.end:                                           ; preds = %if.else6
  br label %if.end11

if.end11:                                         ; preds = %if.end
  br label %if.end12

if.end12:                                         ; preds = %if.end11
  store i32 0, ptr %retval, align 4
  br label %return

return:                                           ; preds = %if.end12, %if.then8, %if.then3, %if.then
  %3 = load i32, ptr %retval, align 4
  ret i32 %3
}