; Function Attrs: mustprogress nofree norecurse nosync nounwind willreturn memory(argmem: read) uwtable
define hidden noundef i32 @_ZNK19OpenColorIO_v2_4dev14FormatRegistry13getNumFormatsEi(ptr nocapture noundef nonnull readonly align 8 dereferenceable(264) %this, i32 noundef %capability) local_unnamed_addr #11 align 2 {
entry:
  switch i32 %capability, label %return [
    i32 1, label %if.then
    i32 2, label %if.then3
    i32 4, label %if.then8
  ]

if.then:                                          ; preds = %entry
  %m_readFormatNames = getelementptr inbounds i8, ptr %this, i64 120
  %_M_finish.i = getelementptr inbounds i8, ptr %this, i64 128
  %0 = load ptr, ptr %_M_finish.i, align 8
  %1 = load ptr, ptr %m_readFormatNames, align 8
  %sub.ptr.lhs.cast.i = ptrtoint ptr %0 to i64
  %sub.ptr.rhs.cast.i = ptrtoint ptr %1 to i64
  %sub.ptr.sub.i = sub i64 %sub.ptr.lhs.cast.i, %sub.ptr.rhs.cast.i
  %sub.ptr.div.i = lshr exact i64 %sub.ptr.sub.i, 5
  %conv = trunc i64 %sub.ptr.div.i to i32
  br label %return

if.then3:                                         ; preds = %entry
  %m_bakeFormatNames = getelementptr inbounds i8, ptr %this, i64 168
  %_M_finish.i3 = getelementptr inbounds i8, ptr %this, i64 176
  %2 = load ptr, ptr %_M_finish.i3, align 8
  %3 = load ptr, ptr %m_bakeFormatNames, align 8
  %sub.ptr.lhs.cast.i4 = ptrtoint ptr %2 to i64
  %sub.ptr.rhs.cast.i5 = ptrtoint ptr %3 to i64
  %sub.ptr.sub.i6 = sub i64 %sub.ptr.lhs.cast.i4, %sub.ptr.rhs.cast.i5
  %sub.ptr.div.i7 = lshr exact i64 %sub.ptr.sub.i6, 5
  %conv5 = trunc i64 %sub.ptr.div.i7 to i32
  br label %return

if.then8:                                         ; preds = %entry
  %m_writeFormatNames = getelementptr inbounds i8, ptr %this, i64 216
  %_M_finish.i8 = getelementptr inbounds i8, ptr %this, i64 224
  %4 = load ptr, ptr %_M_finish.i8, align 8
  %5 = load ptr, ptr %m_writeFormatNames, align 8
  %sub.ptr.lhs.cast.i9 = ptrtoint ptr %4 to i64
  %sub.ptr.rhs.cast.i10 = ptrtoint ptr %5 to i64
  %sub.ptr.sub.i11 = sub i64 %sub.ptr.lhs.cast.i9, %sub.ptr.rhs.cast.i10
  %sub.ptr.div.i12 = lshr exact i64 %sub.ptr.sub.i11, 5
  %conv10 = trunc i64 %sub.ptr.div.i12 to i32
  br label %return

return:                                           ; preds = %entry, %if.then8, %if.then3, %if.then
  %retval.0 = phi i32 [ %conv, %if.then ], [ %conv5, %if.then3 ], [ %conv10, %if.then8 ], [ 0, %entry ]
  ret i32 %retval.0
}